target datalayout = "e-m:e-p270:32:32-p271:32:32-p272:64:64-i64:64-i128:128-f80:128-n8:16:32:64-S128"
target triple = "x86_64-pc-linux-gnu"

%struct.H5FD_multi_t = type { %struct.H5FD_t, %struct.H5FD_multi_fapl_t, [7 x i64], [7 x ptr], [7 x i64], i32, ptr }
%struct.H5FD_t = type { i64, ptr, i64, i32, i64, i64, i64, i64, i64, i8 }
%struct.H5FD_multi_fapl_t = type { [7 x i32], [7 x i64], [7 x ptr], [7 x i64], i8 }
%union.anon.7 = type { ptr }

@.str.1 = private unnamed_addr constant [103 x i8] c"generated/home/dtcxzyw/WorkSpace/Projects/compilers/llvm-opt-benchmark/bench/hdf5/hdf5/src/H5FDmulti.c\00", align 1
@H5_libinit_g = external global i8, align 1
@H5_libterm_g = external global i8, align 1
@H5E_ERR_CLS_g = external global i64, align 8
@H5E_INTERNAL_g = external global i64, align 8
@H5E_BADVALUE_g = external global i64, align 8
@__func__.H5FD_multi_flush = private unnamed_addr constant [17 x i8] c"H5FD_multi_flush\00", align 1
@.str.42 = private unnamed_addr constant [28 x i8] c"error flushing member files\00", align 1

; Function Attrs: nounwind uwtable
define internal i32 @H5FD_multi_flush(ptr noundef %0, i64 noundef %1, i1 noundef zeroext %2) #0 {
  %4 = alloca i32, align 4
  %5 = alloca ptr, align 8
  %6 = alloca i64, align 8
  %7 = alloca i8, align 1
  %8 = alloca ptr, align 8
  %9 = alloca i32, align 4
  %10 = alloca i32, align 4
  %11 = alloca i32, align 4
  %12 = alloca %union.anon.7, align 8
  %13 = alloca ptr, align 8
  %14 = alloca i32, align 4
  store ptr %0, ptr %5, align 8, !tbaa !3
  store i64 %1, ptr %6, align 8, !tbaa !12
  %15 = zext i1 %2 to i8
  store i8 %15, ptr %7, align 1, !tbaa !22
  call void @llvm.lifetime.start.p0(i64 8, ptr %8) #9
  %16 = load ptr, ptr %5, align 8, !tbaa !3
  store ptr %16, ptr %8, align 8, !tbaa !8
  call void @llvm.lifetime.start.p0(i64 4, ptr %9) #9
  call void @llvm.lifetime.start.p0(i64 4, ptr %10) #9
  store i32 0, ptr %10, align 4, !tbaa !10
  %17 = call i32 @H5Eclear2(i64 noundef 0)
  store i32 1, ptr %9, align 4, !tbaa !10
  br label %18

18:                                               ; preds = %67, %3
  %19 = load i32, ptr %9, align 4, !tbaa !10
  %20 = icmp slt i32 %19, 7
  br i1 %20, label %21, label %70

21:                                               ; preds = %18
  %22 = load ptr, ptr %8, align 8, !tbaa !8
  %23 = getelementptr inbounds nuw %struct.H5FD_multi_t, ptr %22, i32 0, i32 3
  %24 = load i32, ptr %9, align 4, !tbaa !10
  %25 = sext i32 %24 to i64
  %26 = getelementptr inbounds [7 x ptr], ptr %23, i64 0, i64 %25
  %27 = load ptr, ptr %26, align 8, !tbaa !3
  %28 = icmp ne ptr %27, null
  br i1 %28, label %29, label %66

29:                                               ; preds = %21
  call void @llvm.lifetime.start.p0(i64 4, ptr %11) #9
  call void @llvm.lifetime.start.p0(i64 8, ptr %12) #9
  call void @llvm.lifetime.start.p0(i64 8, ptr %13) #9
  %30 = call i32 @H5Eauto_is_v2(i64 noundef 0, ptr noundef %11)
  %31 = load i32, ptr %11, align 4, !tbaa !10
  %32 = icmp ne i32 %31, 0
  br i1 %32, label %33, label %36

33:                                               ; preds = %29
  %34 = call i32 @H5Eget_auto2(i64 noundef 0, ptr noundef %12, ptr noundef %13)
  %35 = call i32 @H5Eset_auto2(i64 noundef 0, ptr noundef null, ptr noundef null)
  br label %39

36:                                               ; preds = %29
  %37 = call i32 @H5Eget_auto1(ptr noundef %12, ptr noundef %13)
  %38 = call i32 @H5Eset_auto1(ptr noundef null, ptr noundef null)
  br label %39

39:                                               ; preds = %36, %33
  %40 = load ptr, ptr %8, align 8, !tbaa !8
  %41 = getelementptr inbounds nuw %struct.H5FD_multi_t, ptr %40, i32 0, i32 3
  %42 = load i32, ptr %9, align 4, !tbaa !10
  %43 = sext i32 %42 to i64
  %44 = getelementptr inbounds [7 x ptr], ptr %41, i64 0, i64 %43
  %45 = load ptr, ptr %44, align 8, !tbaa !3
  %46 = load i64, ptr %6, align 8, !tbaa !12
  %47 = load i8, ptr %7, align 1, !tbaa !22, !range !24, !noundef !25
  %48 = trunc i8 %47 to i1
  %49 = call i32 @H5FDflush(ptr noundef %45, i64 noundef %46, i1 noundef zeroext %48)
  %50 = icmp slt i32 %49, 0
  br i1 %50, label %51, label %54

51:                                               ; preds = %39
  %52 = load i32, ptr %10, align 4, !tbaa !10
  %53 = add nsw i32 %52, 1
  store i32 %53, ptr %10, align 4, !tbaa !10
  br label %54

54:                                               ; preds = %51, %39
  %55 = load i32, ptr %11, align 4, !tbaa !10
  %56 = icmp ne i32 %55, 0
  br i1 %56, label %57, label %61

57:                                               ; preds = %54
  %58 = load ptr, ptr %12, align 8, !tbaa !19
  %59 = load ptr, ptr %13, align 8, !tbaa !40
  %60 = call i32 @H5Eset_auto2(i64 noundef 0, ptr noundef %58, ptr noundef %59)
  br label %65

61:                                               ; preds = %54
  %62 = load ptr, ptr %12, align 8, !tbaa !19
  %63 = load ptr, ptr %13, align 8, !tbaa !40
  %64 = call i32 @H5Eset_auto1(ptr noundef %62, ptr noundef %63)
  br label %65

65:                                               ; preds = %61, %57
  call void @llvm.lifetime.end.p0(i64 8, ptr %13) #9
  call void @llvm.lifetime.end.p0(i64 8, ptr %12) #9
  call void @llvm.lifetime.end.p0(i64 4, ptr %11) #9
  br label %66

66:                                               ; preds = %65, %21
  br label %67

67:                                               ; preds = %66
  %68 = load i32, ptr %9, align 4, !tbaa !10
  %69 = add nsw i32 %68, 1
  store i32 %69, ptr %9, align 4, !tbaa !10
  br label %18, !llvm.loop !66

70:                                               ; preds = %18
  %71 = load i32, ptr %10, align 4, !tbaa !10
  %72 = icmp ne i32 %71, 0
  br i1 %72, label %73, label %135

73:                                               ; preds = %70
  br label %74

74:                                               ; preds = %73
  %75 = load i8, ptr @H5_libinit_g, align 1, !tbaa !22, !range !24, !noundef !25
  %76 = trunc i8 %75 to i1
  br i1 %76, label %81, label %77

77:                                               ; preds = %74
  %78 = load i8, ptr @H5_libterm_g, align 1, !tbaa !22, !range !24, !noundef !25
  %79 = trunc i8 %78 to i1
  %80 = xor i1 %79, true
  br label %81

81:                                               ; preds = %77, %74
  %82 = phi i1 [ false, %74 ], [ %80, %77 ]
  %83 = xor i1 %82, true
  %84 = xor i1 %83, true
  %85 = zext i1 %84 to i32
  %86 = sext i32 %85 to i64
  %87 = call i64 @llvm.expect.i64(i64 %86, i64 0)
  %88 = icmp ne i64 %87, 0
  br i1 %88, label %89, label %91

89:                                               ; preds = %81
  %90 = call i32 @H5open()
  br label %92

91:                                               ; preds = %81
  br label %92

92:                                               ; preds = %91, %89
  %93 = load i64, ptr @H5E_ERR_CLS_g, align 8, !tbaa !12
  %94 = load i8, ptr @H5_libinit_g, align 1, !tbaa !22, !range !24, !noundef !25
  %95 = trunc i8 %94 to i1
  br i1 %95, label %100, label %96

96:                                               ; preds = %92
  %97 = load i8, ptr @H5_libterm_g, align 1, !tbaa !22, !range !24, !noundef !25
  %98 = trunc i8 %97 to i1
  %99 = xor i1 %98, true
  br label %100

100:                                              ; preds = %96, %92
  %101 = phi i1 [ false, %92 ], [ %99, %96 ]
  %102 = xor i1 %101, true
  %103 = xor i1 %102, true
  %104 = zext i1 %103 to i32
  %105 = sext i32 %104 to i64
  %106 = call i64 @llvm.expect.i64(i64 %105, i64 0)
  %107 = icmp ne i64 %106, 0
  br i1 %107, label %108, label %110

108:                                              ; preds = %100
  %109 = call i32 @H5open()
  br label %111

110:                                              ; preds = %100
  br label %111

111:                                              ; preds = %110, %108
  %112 = load i64, ptr @H5E_INTERNAL_g, align 8, !tbaa !12
  %113 = load i8, ptr @H5_libinit_g, align 1, !tbaa !22, !range !24, !noundef !25
  %114 = trunc i8 %113 to i1
  br i1 %114, label %119, label %115

115:                                              ; preds = %111
  %116 = load i8, ptr @H5_libterm_g, align 1, !tbaa !22, !range !24, !noundef !25
  %117 = trunc i8 %116 to i1
  %118 = xor i1 %117, true
  br label %119

119:                                              ; preds = %115, %111
  %120 = phi i1 [ false, %111 ], [ %118, %115 ]
  %121 = xor i1 %120, true
  %122 = xor i1 %121, true
  %123 = zext i1 %122 to i32
  %124 = sext i32 %123 to i64
  %125 = call i64 @llvm.expect.i64(i64 %124, i64 0)
  %126 = icmp ne i64 %125, 0
  br i1 %126, label %127, label %129

127:                                              ; preds = %119
  %128 = call i32 @H5open()
  br label %130

129:                                              ; preds = %119
  br label %130

130:                                              ; preds = %129, %127
  %131 = load i64, ptr @H5E_BADVALUE_g, align 8, !tbaa !12
  %132 = call i32 (i64, ptr, ptr, i32, i64, i64, i64, ptr, ...) @H5Epush2(i64 noundef 0, ptr noundef @.str.1, ptr noundef @__func__.H5FD_multi_flush, i32 noundef 1714, i64 noundef %93, i64 noundef %112, i64 noundef %131, ptr noundef @.str.42)
  store i32 -1, ptr %4, align 4
  store i32 1, ptr %14, align 4
  br label %136

133:                                              ; No predecessors!
  br label %134

134:                                              ; preds = %133
  br label %135

135:                                              ; preds = %134, %70
  store i32 0, ptr %4, align 4
  store i32 1, ptr %14, align 4
  br label %136

136:                                              ; preds = %135, %130
  call void @llvm.lifetime.end.p0(i64 4, ptr %10) #9
  call void @llvm.lifetime.end.p0(i64 4, ptr %9) #9
  call void @llvm.lifetime.end.p0(i64 8, ptr %8) #9
  %137 = load i32, ptr %4, align 4
  ret i32 %137
}